target datalayout = "e-m:e-p270:32:32-p271:32:32-p272:64:64-i64:64-i128:128-f80:128-n8:16:32:64-S128"
target triple = "x86_64-pc-linux-gnu"

%struct.b2Vec2 = type { float, float }
%struct.b2JointSim = type { i32, i32, i32, i32, %struct.b2Vec2, %struct.b2Vec2, float, float, float, float, %union.anon }
%union.anon = type { %struct.b2PrismaticJoint }
%struct.b2PrismaticJoint = type { %struct.b2Vec2, %struct.b2Vec2, float, float, float, float, float, float, float, float, float, float, float, i32, i32, %struct.b2Vec2, %struct.b2Vec2, %struct.b2Vec2, %struct.b2Vec2, float, float, %struct.b2Softness, i8, i8, i8 }
%struct.b2Softness = type { float, float, float }
%struct.b2WheelJoint = type { %struct.b2Vec2, float, float, float, float, float, float, float, float, float, float, float, i32, i32, %struct.b2Vec2, %struct.b2Vec2, %struct.b2Vec2, %struct.b2Vec2, float, float, float, %struct.b2Softness, i8, i8, i8 }
%struct.b2World = type { %struct.b2ArenaAllocator, %struct.b2BroadPhase, %struct.b2ConstraintGraph, %struct.b2IdPool, %struct.b2BodyArray, %struct.b2IdPool, %struct.b2SolverSetArray, %struct.b2IdPool, %struct.b2JointArray, %struct.b2IdPool, %struct.b2ContactArray, %struct.b2IdPool, %struct.b2IslandArray, %struct.b2IdPool, %struct.b2IdPool, %struct.b2ShapeArray, %struct.b2ChainShapeArray, %struct.b2SensorArray, %struct.b2TaskContextArray, %struct.b2SensorTaskContextArray, %struct.b2BodyMoveEventArray, %struct.b2SensorBeginTouchEventArray, %struct.b2ContactBeginTouchEventArray, [2 x %struct.b2SensorEndTouchEventArray], [2 x %struct.b2ContactEndTouchEventArray], i32, %struct.b2ContactHitEventArray, %struct.b2BitSet, %struct.b2BitSet, %struct.b2BitSet, i64, i32, %struct.b2Vec2, float, float, float, float, float, float, float, float, ptr, ptr, i16, %struct.b2Profile, ptr, ptr, ptr, ptr, i32, ptr, ptr, ptr, ptr, ptr, float, i32, i32, i16, i8, i8, i8, i8, i8, i8 }
%struct.b2ArenaAllocator = type { ptr, i32, i32, i32, i32, %struct.b2ArenaEntryArray }
%struct.b2ArenaEntryArray = type { ptr, i32, i32 }
%struct.b2BroadPhase = type { [3 x %struct.b2DynamicTree], i32, %struct.b2HashSet, %struct.b2IntArray, ptr, ptr, i32, %struct.b2AtomicInt, %struct.b2HashSet }
%struct.b2DynamicTree = type { ptr, i32, i32, i32, i32, i32, ptr, ptr, ptr, ptr, i32 }
%struct.b2IntArray = type { ptr, i32, i32 }
%struct.b2AtomicInt = type { i32 }
%struct.b2HashSet = type { ptr, i32, i32 }
%struct.b2ConstraintGraph = type { [12 x %struct.b2GraphColor] }
%struct.b2GraphColor = type { %struct.b2BitSet, %struct.b2ContactSimArray, %struct.b2JointSimArray, %union.anon.0 }
%struct.b2ContactSimArray = type { ptr, i32, i32 }
%struct.b2JointSimArray = type { ptr, i32, i32 }
%union.anon.0 = type { ptr }
%struct.b2BodyArray = type { ptr, i32, i32 }
%struct.b2SolverSetArray = type { ptr, i32, i32 }
%struct.b2JointArray = type { ptr, i32, i32 }
%struct.b2ContactArray = type { ptr, i32, i32 }
%struct.b2IslandArray = type { ptr, i32, i32 }
%struct.b2IdPool = type { %struct.b2IntArray, i32 }
%struct.b2ShapeArray = type { ptr, i32, i32 }
%struct.b2ChainShapeArray = type { ptr, i32, i32 }
%struct.b2SensorArray = type { ptr, i32, i32 }
%struct.b2TaskContextArray = type { ptr, i32, i32 }
%struct.b2SensorTaskContextArray = type { ptr, i32, i32 }
%struct.b2BodyMoveEventArray = type { ptr, i32, i32 }
%struct.b2SensorBeginTouchEventArray = type { ptr, i32, i32 }
%struct.b2ContactBeginTouchEventArray = type { ptr, i32, i32 }
%struct.b2SensorEndTouchEventArray = type { ptr, i32, i32 }
%struct.b2ContactEndTouchEventArray = type { ptr, i32, i32 }
%struct.b2ContactHitEventArray = type { ptr, i32, i32 }
%struct.b2BitSet = type { ptr, i32, i32 }
%struct.b2Profile = type { float, float, float, float, float, float, float, float, float, float, float, float, float, float, float, float, float, float, float, float, float, float }

; Function Attrs: inlinehint nounwind uwtable
define internal <2 x float> @b2Add(<2 x float> %0, <2 x float> %1) #6 {
  %3 = alloca %struct.b2Vec2, align 4
  %4 = alloca %struct.b2Vec2, align 4
  %5 = alloca %struct.b2Vec2, align 4
  store <2 x float> %0, ptr %4, align 4
  store <2 x float> %1, ptr %5, align 4
  %6 = getelementptr inbounds nuw %struct.b2Vec2, ptr %3, i32 0, i32 0
  %7 = getelementptr inbounds nuw %struct.b2Vec2, ptr %4, i32 0, i32 0
  %8 = load float, ptr %7, align 4, !tbaa !80
  %9 = getelementptr inbounds nuw %struct.b2Vec2, ptr %5, i32 0, i32 0
  %10 = load float, ptr %9, align 4, !tbaa !80
  %11 = fadd float %8, %10
  store float %11, ptr %6, align 4, !tbaa !80
  %12 = getelementptr inbounds nuw %struct.b2Vec2, ptr %3, i32 0, i32 1
  %13 = getelementptr inbounds nuw %struct.b2Vec2, ptr %4, i32 0, i32 1
  %14 = load float, ptr %13, align 4, !tbaa !79
  %15 = getelementptr inbounds nuw %struct.b2Vec2, ptr %5, i32 0, i32 1
  %16 = load float, ptr %15, align 4, !tbaa !79
  %17 = fadd float %14, %16
  store float %17, ptr %12, align 4, !tbaa !79
  %18 = load <2 x float>, ptr %3, align 4
  ret <2 x float> %18
}

; Function Attrs: inlinehint nounwind uwtable
define internal <2 x float> @b2MulSV(float noundef %0, <2 x float> %1) #6 {
  %3 = alloca %struct.b2Vec2, align 4
  %4 = alloca %struct.b2Vec2, align 4
  %5 = alloca float, align 4
  store <2 x float> %1, ptr %4, align 4
  store float %0, ptr %5, align 4, !tbaa !13
  %6 = getelementptr inbounds nuw %struct.b2Vec2, ptr %3, i32 0, i32 0
  %7 = load float, ptr %5, align 4, !tbaa !13
  %8 = getelementptr inbounds nuw %struct.b2Vec2, ptr %4, i32 0, i32 0
  %9 = load float, ptr %8, align 4, !tbaa !80
  %10 = fmul float %7, %9
  store float %10, ptr %6, align 4, !tbaa !80
  %11 = getelementptr inbounds nuw %struct.b2Vec2, ptr %3, i32 0, i32 1
  %12 = load float, ptr %5, align 4, !tbaa !13
  %13 = getelementptr inbounds nuw %struct.b2Vec2, ptr %4, i32 0, i32 1
  %14 = load float, ptr %13, align 4, !tbaa !79
  %15 = fmul float %12, %14
  store float %15, ptr %11, align 4, !tbaa !79
  %16 = load <2 x float>, ptr %3, align 4
  ret <2 x float> %16
}

; Function Attrs: inlinehint nounwind uwtable
define internal <2 x float> @b2LeftPerp(<2 x float> %0) #6 {
  %2 = alloca %struct.b2Vec2, align 4
  %3 = alloca %struct.b2Vec2, align 4
  store <2 x float> %0, ptr %3, align 4
  %4 = getelementptr inbounds nuw %struct.b2Vec2, ptr %2, i32 0, i32 0
  %5 = getelementptr inbounds nuw %struct.b2Vec2, ptr %3, i32 0, i32 1
  %6 = load float, ptr %5, align 4, !tbaa !79
  %7 = fneg float %6
  store float %7, ptr %4, align 4, !tbaa !80
  %8 = getelementptr inbounds nuw %struct.b2Vec2, ptr %2, i32 0, i32 1
  %9 = getelementptr inbounds nuw %struct.b2Vec2, ptr %3, i32 0, i32 0
  %10 = load float, ptr %9, align 4, !tbaa !80
  store float %10, ptr %8, align 4, !tbaa !79
  %11 = load <2 x float>, ptr %2, align 4
  ret <2 x float> %11
}

; Function Attrs: nounwind uwtable
define hidden <2 x float> @b2GetWheelJointForce(ptr noundef %0, ptr noundef %1) #4 {
  %3 = alloca %struct.b2Vec2, align 4
  %4 = alloca ptr, align 8
  %5 = alloca ptr, align 8
  %6 = alloca ptr, align 8
  %7 = alloca %struct.b2Vec2, align 4
  %8 = alloca %struct.b2Vec2, align 4
  %9 = alloca float, align 4
  %10 = alloca float, align 4
  %11 = alloca %struct.b2Vec2, align 4
  %12 = alloca %struct.b2Vec2, align 4
  store ptr %0, ptr %4, align 8, !tbaa !19
  store ptr %1, ptr %5, align 8, !tbaa !7
  call void @llvm.lifetime.start.p0(i64 8, ptr %6) #7
  %13 = load ptr, ptr %5, align 8, !tbaa !7
  %14 = getelementptr inbounds nuw %struct.b2JointSim, ptr %13, i32 0, i32 10
  store ptr %14, ptr %6, align 8, !tbaa !70
  call void @llvm.lifetime.start.p0(i64 8, ptr %7) #7
  %15 = load ptr, ptr %6, align 8, !tbaa !70
  %16 = getelementptr inbounds nuw %struct.b2WheelJoint, ptr %15, i32 0, i32 16
  call void @llvm.memcpy.p0.p0.i64(ptr align 4 %7, ptr align 4 %16, i64 8, i1 false), !tbaa.struct !72
  call void @llvm.lifetime.start.p0(i64 8, ptr %8) #7
  %17 = load <2 x float>, ptr %7, align 4
  %18 = call <2 x float> @b2LeftPerp(<2 x float> %17)
  store <2 x float> %18, ptr %8, align 4
  call void @llvm.lifetime.start.p0(i64 4, ptr %9) #7
  %19 = load ptr, ptr %4, align 8, !tbaa !19
  %20 = getelementptr inbounds nuw %struct.b2World, ptr %19, i32 0, i32 55
  %21 = load float, ptr %20, align 8, !tbaa !21
  %22 = load ptr, ptr %6, align 8, !tbaa !70
  %23 = getelementptr inbounds nuw %struct.b2WheelJoint, ptr %22, i32 0, i32 1
  %24 = load float, ptr %23, align 4, !tbaa !73
  %25 = fmul float %21, %24
  store float %25, ptr %9, align 4, !tbaa !13
  call void @llvm.lifetime.start.p0(i64 4, ptr %10) #7
  %26 = load ptr, ptr %4, align 8, !tbaa !19
  %27 = getelementptr inbounds nuw %struct.b2World, ptr %26, i32 0, i32 55
  %28 = load float, ptr %27, align 8, !tbaa !21
  %29 = load ptr, ptr %6, align 8, !tbaa !70
  %30 = getelementptr inbounds nuw %struct.b2WheelJoint, ptr %29, i32 0, i32 3
  %31 = load float, ptr %30, align 4, !tbaa !76
  %32 = load ptr, ptr %6, align 8, !tbaa !70
  %33 = getelementptr inbounds nuw %struct.b2WheelJoint, ptr %32, i32 0, i32 4
  %34 = load float, ptr %33, align 4, !tbaa !77
  %35 = fadd float %31, %34
  %36 = load ptr, ptr %6, align 8, !tbaa !70
  %37 = getelementptr inbounds nuw %struct.b2WheelJoint, ptr %36, i32 0, i32 5
  %38 = load float, ptr %37, align 4, !tbaa !78
  %39 = fsub float %35, %38
  %40 = fmul float %28, %39
  store float %40, ptr %10, align 4, !tbaa !13
  %41 = load float, ptr %9, align 4, !tbaa !13
  %42 = load <2 x float>, ptr %8, align 4
  %43 = call <2 x float> @b2MulSV(float noundef %41, <2 x float> %42)
  store <2 x float> %43, ptr %11, align 4
  %44 = load float, ptr %10, align 4, !tbaa !13
  %45 = load <2 x float>, ptr %7, align 4
  %46 = call <2 x float> @b2MulSV(float noundef %44, <2 x float> %45)
  store <2 x float> %46, ptr %12, align 4
  %47 = load <2 x float>, ptr %11, align 4
  %48 = load <2 x float>, ptr %12, align 4
  %49 = call <2 x float> @b2Add(<2 x float> %47, <2 x float> %48)
  store <2 x float> %49, ptr %3, align 4
  call void @llvm.lifetime.end.p0(i64 4, ptr %10) #7
  call void @llvm.lifetime.end.p0(i64 4, ptr %9) #7
  call void @llvm.lifetime.end.p0(i64 8, ptr %8) #7
  call void @llvm.lifetime.end.p0(i64 8, ptr %7) #7
  call void @llvm.lifetime.end.p0(i64 8, ptr %6) #7
  %50 = load <2 x float>, ptr %3, align 4
  ret <2 x float> %50
}