; Function Attrs: mustprogress nofree norecurse nosync nounwind willreturn memory(argmem: read) uwtable
define hidden <2 x float> @b2GetWheelJointForce(ptr noundef readonly captures(none) %0, ptr noundef readonly captures(none) %1) local_unnamed_addr #3 {
  %3 = getelementptr inbounds nuw i8, ptr %1, i64 124
  %.sroa.04.0.copyload = load <2 x float>, ptr %3, align 4
  %.sroa.0.4.vec.extract.i = extractelement <2 x float> %.sroa.04.0.copyload, i64 1
  %4 = getelementptr inbounds nuw i8, ptr %0, i64 1768
  %5 = load float, ptr %4, align 8, !tbaa !8
  %6 = getelementptr inbounds nuw i8, ptr %1, i64 56
  %7 = load float, ptr %6, align 4, !tbaa !62
  %8 = fmul float %5, %7
  %9 = getelementptr inbounds nuw i8, ptr %1, i64 64
  %10 = load float, ptr %9, align 4, !tbaa !65
  %11 = getelementptr inbounds nuw i8, ptr %1, i64 68
  %12 = load float, ptr %11, align 4, !tbaa !66
  %13 = fadd float %10, %12
  %14 = getelementptr inbounds nuw i8, ptr %1, i64 72
  %15 = load float, ptr %14, align 4, !tbaa !67
  %16 = fsub float %13, %15
  %17 = fmul float %5, %16
  %.sroa.0.4.vec.extract.i15 = extractelement <2 x float> %.sroa.04.0.copyload, i64 0
  %18 = fmul float %.sroa.0.4.vec.extract.i15, %8
  %19 = fmul float %.sroa.0.4.vec.extract.i15, %17
  %20 = fmul float %.sroa.0.4.vec.extract.i, %17
  %21 = fmul float %.sroa.0.4.vec.extract.i, %8
  %22 = fsub float %19, %21
  %.sroa.02.0.vec.insert.i20 = insertelement <2 x float> poison, float %22, i64 0
  %23 = fadd float %18, %20
  %.sroa.02.4.vec.insert.i22 = insertelement <2 x float> %.sroa.02.0.vec.insert.i20, float %23, i64 1
  ret <2 x float> %.sroa.02.4.vec.insert.i22
}